; Function Attrs: mustprogress nofree nounwind willreturn memory(write) uwtable
define hidden noundef i32 @_ZN6hermes2vm10daysInYearEd(double noundef %y) local_unnamed_addr #4 {
entry:
  %call.i.i = tail call noundef double @fmod(double noundef %y, double noundef 4.000000e+00) #17
  %cmp.i = fcmp une double %call.i.i, 0.000000e+00
  br i1 %cmp.i, label %_ZN6hermes2vmL10isLeapYearEd.exit.thread2, label %if.end.i

if.end.i:                                         ; preds = %entry
  %call.i3.i = tail call noundef double @fmod(double noundef %y, double noundef 1.000000e+02) #17
  %cmp2.i = fcmp une double %call.i3.i, 0.000000e+00
  br i1 %cmp2.i, label %_ZN6hermes2vmL10isLeapYearEd.exit.thread, label %_ZN6hermes2vmL10isLeapYearEd.exit

_ZN6hermes2vmL10isLeapYearEd.exit:                ; preds = %if.end.i
  %call.i4.i = tail call noundef double @fmod(double noundef %y, double noundef 4.000000e+02) #17
  %cmp6.i = fcmp oeq double %call.i4.i, 0.000000e+00
  br i1 %cmp6.i, label %_ZN6hermes2vmL10isLeapYearEd.exit.thread, label %_ZN6hermes2vmL10isLeapYearEd.exit.thread2

_ZN6hermes2vmL10isLeapYearEd.exit.thread:         ; preds = %if.end.i, %_ZN6hermes2vmL10isLeapYearEd.exit
  br label %_ZN6hermes2vmL10isLeapYearEd.exit.thread2

_ZN6hermes2vmL10isLeapYearEd.exit.thread2:        ; preds = %entry, %_ZN6hermes2vmL10isLeapYearEd.exit, %_ZN6hermes2vmL10isLeapYearEd.exit.thread
  %0 = phi i32 [ 366, %_ZN6hermes2vmL10isLeapYearEd.exit.thread ], [ 365, %_ZN6hermes2vmL10isLeapYearEd.exit ], [ 365, %entry ]
  ret i32 %0
}